; Function Attrs: mustprogress uwtable
define noundef i64 @_ZNK6casadi9LinsolLdl4rankEPvPKd(ptr noundef nonnull align 8 dereferenceable(218) %0, ptr nocapture noundef readonly %1, ptr nocapture readnone %2) unnamed_addr #4 align 2 {
  %4 = getelementptr inbounds i8, ptr %0, i64 176
  %5 = tail call noundef i64 @_ZNK6casadi8Sparsity5size1Ev(ptr noundef nonnull align 8 dereferenceable(8) %4)
  %6 = icmp sgt i64 %5, 0
  br i1 %6, label %.lr.ph, label %._crit_edge

.lr.ph:                                           ; preds = %3
  %7 = getelementptr inbounds i8, ptr %1, i64 88
  %8 = load ptr, ptr %7, align 8
  br label %9

9:                                                ; preds = %.lr.ph, %9
  %.010 = phi i64 [ 0, %.lr.ph ], [ %14, %9 ]
  %.089 = phi i64 [ 0, %.lr.ph ], [ %.1, %9 ]
  %10 = getelementptr inbounds double, ptr %8, i64 %.010
  %11 = load double, ptr %10, align 8
  %12 = fcmp une double %11, 0.000000e+00
  %13 = zext i1 %12 to i64
  %.1 = add nuw nsw i64 %.089, %13
  %14 = add nuw nsw i64 %.010, 1
  %exitcond.not = icmp eq i64 %14, %5
  br i1 %exitcond.not, label %._crit_edge, label %9, !llvm.loop !22

._crit_edge:                                      ; preds = %9, %3
  %.08.lcssa = phi i64 [ 0, %3 ], [ %.1, %9 ]
  ret i64 %.08.lcssa
}